target datalayout = "e-m:e-p270:32:32-p271:32:32-p272:64:64-i64:64-i128:128-f80:128-n8:16:32:64-S128"
target triple = "x86_64-pc-linux-gnu"

%"class.llvm::legacy::FunctionPassManager" = type { %"class.llvm::legacy::PassManagerBase", ptr, ptr }
%"class.llvm::legacy::PassManagerBase" = type { ptr }

@_ZTVN4llvm6legacy19FunctionPassManagerE = unnamed_addr constant { [5 x ptr] } { [5 x ptr] [ptr null, ptr null, ptr @_ZN4llvm6legacy19FunctionPassManagerD1Ev, ptr @_ZN4llvm6legacy19FunctionPassManagerD0Ev, ptr @_ZN4llvm6legacy19FunctionPassManager3addEPNS_4PassE] }, align 8

; Function Attrs: mustprogress nounwind uwtable
define dso_local void @_ZN4llvm6legacy15PassManagerBaseD2Ev(ptr noundef nonnull align 8 dereferenceable(8) %0) unnamed_addr #1 align 2 {
  %2 = alloca ptr, align 8
  store ptr %0, ptr %2, align 8
  ret void
}

; Function Attrs: mustprogress nounwind uwtable
define dso_local void @_ZN4llvm6legacy19FunctionPassManagerD2Ev(ptr noundef nonnull align 8 dereferenceable(24) %0) unnamed_addr #1 align 2 {
  %2 = alloca ptr, align 8
  store ptr %0, ptr %2, align 8
  %3 = load ptr, ptr %2, align 8
  store ptr getelementptr inbounds inrange(-16, 24) ({ [5 x ptr] }, ptr @_ZTVN4llvm6legacy19FunctionPassManagerE, i32 0, i32 0, i32 2), ptr %3, align 8
  %4 = getelementptr inbounds nuw %"class.llvm::legacy::FunctionPassManager", ptr %3, i32 0, i32 1
  %5 = load ptr, ptr %4, align 8
  %6 = icmp eq ptr %5, null
  br i1 %6, label %11, label %7

7:                                                ; preds = %1
  %8 = load ptr, ptr %5, align 8
  %9 = getelementptr inbounds ptr, ptr %8, i64 1
  %10 = load ptr, ptr %9, align 8
  call void %10(ptr noundef nonnull align 8 dereferenceable(1097) %5) #2
  br label %11

11:                                               ; preds = %7, %1
  call void @_ZN4llvm6legacy15PassManagerBaseD2Ev(ptr noundef nonnull align 8 dereferenceable(8) %3) #2
  ret void
}