; Function Attrs: mustprogress nounwind uwtable
define dso_local void @_ZN4llvm6legacy19FunctionPassManagerD2Ev(ptr nocapture noundef nonnull align 8 dereferenceable(24) %0) unnamed_addr #0 align 2 {
  store ptr getelementptr inbounds inrange(-16, 24) (i8, ptr @_ZTVN4llvm6legacy19FunctionPassManagerE, i64 16), ptr %0, align 8
  %2 = getelementptr inbounds nuw i8, ptr %0, i64 8
  %3 = load ptr, ptr %2, align 8
  %4 = icmp eq ptr %3, null
  br i1 %4, label %9, label %5

5:                                                ; preds = %1
  %6 = load ptr, ptr %3, align 8
  %7 = getelementptr inbounds i8, ptr %6, i64 8
  %8 = load ptr, ptr %7, align 8
  tail call void %8(ptr noundef nonnull align 8 dereferenceable(1097) %3) #27
  br label %9

9:                                                ; preds = %5, %1
  ret void
}